(dp1
S'output'
p2
S"<type 'exceptions.SyntaxError'> invalid syntax (db.py, line 306)"
p3
sS'layer'
p4
S'/home/wasuaje/Documentos/desarrollo/web2py6/applications/pysalon/models/db.py'
p5
sS'code'
p6
S'# -*- coding: utf-8 -*-\n\n#########################################################################\n## This scaffolding model makes your app work on Google App Engine too\n## File is released under public domain and you can use without limitations\n#########################################################################\n\n## if SSL/HTTPS is properly configured and you want all HTTP requests to\n## be redirected to HTTPS, uncomment the line below:\n# request.requires_https()\n\nif not request.env.web2py_runtime_gae:\n    ## if NOT running on Google App Engine use SQLite or other DB\n    db = DAL(\'sqlite://storage.sqlite\',pool_size=1,check_reserved=[\'all\'])\n    #db = DAL(\'sqlite://storage.sqlite\',fake_migrate_all=True)\nelse:\n    ## connect to Google BigTable (optional \'google:datastore://namespace\')\n    db = DAL(\'google:datastore\')\n    ## store sessions and tickets there\n    session.connect(request, response, db=db)\n    ## or store session in Memcache, Redis, etc.\n    ## from gluon.contrib.memdb import MEMDB\n    ## from google.appengine.api.memcache import Client\n    ## session.connect(request, response, db = MEMDB(Client()))\n\n## by default give a view/generic.extension to all actions from localhost\n## none otherwise. a pattern can be \'controller/function.extension\'\nresponse.generic_patterns = [\'*\'] if request.is_local else []\n## (optional) optimize handling of static files\n# response.optimize_css = \'concat,minify,inline\'\n# response.optimize_js = \'concat,minify,inline\'\n## (optional) static assets folder versioning\n# response.static_version = \'0.0.0\'\n#########################################################################\n## Here is sample code if you need for\n## - email capabilities\n## - authentication (registration, login, logout, ... )\n## - authorization (role based authorization)\n## - services (xml, csv, json, xmlrpc, jsonrpc, amf, rss)\n## - old style crud actions\n## (more options discussed in gluon/tools.py)\n#########################################################################\n\nfrom gluon.tools import Auth, Crud, Service, PluginManager, prettydate\nauth = Auth(db)\ncrud, service, plugins = Crud(db), Service(), PluginManager()\n\n## create all tables needed by auth if not custom tables\nauth.define_tables(username=False, signature=False)\n\n## configure email\nmail = auth.settings.mailer\nmail.settings.server = \'logging\' or \'smtp.gmail.com:587\'\nmail.settings.sender = \'you@gmail.com\'\nmail.settings.login = \'username:password\'\n\n## configure auth policy\nauth.settings.registration_requires_verification = False\nauth.settings.registration_requires_approval = False\nauth.settings.reset_password_requires_verification = True\n\n## if you need to use OpenID, Facebook, MySpace, Twitter, Linkedin, etc.\n## register with janrain.com, write your domain:api_key in private/janrain.key\nfrom gluon.contrib.login_methods.rpx_account import use_janrain\nuse_janrain(auth, filename=\'private/janrain.key\')\n\n#########################################################################\n## Define your tables below (or better in another model file) for example\n##\n## >>> db.define_table(\'mytable\',Field(\'myfield\',\'string\'))\n##\n## Fields can be \'string\',\'text\',\'password\',\'integer\',\'double\',\'boolean\'\n##       \'date\',\'time\',\'datetime\',\'blob\',\'upload\', \'reference TABLENAME\'\n## There is an implicit \'id integer autoincrement\' field\n## Consult manual for more options, validators, etc.\n##\n## More API examples for controllers:\n##\n## >>> db.mytable.insert(myfield=\'value\')\n## >>> rows=db(db.mytable.myfield==\'value\').select(db.mytable.ALL)\n## >>> for row in rows: print row.id, row.myfield\n#########################################################################\n\n## after defining tables, uncomment below to enable auditing\n# auth.enable_record_versioning(db)\n\nimport datetime\n\ndb.define_table(\'cf_empresa\',\n    Field(\'id\',\'integer\'),\n    Field(\'nombre\',\'string\', label=T(\'Nombre\')),\n    Field(\'razon_social\',\'string\', label=T(\'Razon Social\')),\n    Field(\'direccion\',\'text\', label=T(\'Direccion\')),\n    Field(\'rif\',\'string\', label=T(\'Rif\')),\n    Field(\'nit\',\'string\', label=T(\'Nit\')),\n    Field(\'email\',\'string\', label=T(\'Email\')),\n    Field(\'tlf\',\'string\', label=T(\'Tlf\')),\n    Field(\'fax\',\'string\', label=T(\'Fax\')),\n    Field(\'ruta_foto\',\'upload\',autodelete=True, label=T(\'Imagen\'))\n    )\n\n\ndb.define_table(\'cf_proveedor\',\n    Field(\'id\',\'integer\'),\n    Field(\'nombre\',\'string\', label=T(\'Nombre\')),\n    Field(\'razon_social\',\'string\', label=T(\'Razon Social\')),\n    Field(\'direccion\',\'text\', label=T(\'Direccion\')),\n    Field(\'rif\',\'string\', label=T(\'R.I.F\')),\n    Field(\'nit\',\'string\', label=T(\'N.I.T\')),\n    Field(\'email\',\'string\', label=T(\'E-Mail\')),\n    Field(\'tlf\',\'string\', label=T(\'Tlf.\')),\n    Field(\'fax\',\'string\', label=T(\'Fax.\')),\n    Field(\'ruta_foto\',\'upload\',autodelete=True, label=T(\'Imagen\')),format=\'%(razon_social)s\'\n    )\n\ndb.define_table(\'cf_cliente\',\n    Field(\'id\',\'integer\'),\n    Field(\'nombre\',\'string\', label=T(\'Nombre\')),\n    Field(\'razon_social\',\'string\', label=T(\'Razon Social\')),\n    Field(\'direccion\',\'text\', label=T(\'Direccion\')),\n    Field(\'rif\',\'string\', label=T(\'R.I.F\')),\n    Field(\'nit\',\'string\', label=T(\'N.I.T\')),\n    Field(\'email\',\'string\', label=T(\'E-Mail\')),\n    Field(\'tlf\',\'string\', label=T(\'Tlf.\')),\n    Field(\'fax\',\'string\', label=T(\'Fax.\')),\n    Field(\'juridico\',\'boolean\', label=T(\'Es Juridico\')),\n    Field(\'ruta_foto\',\'upload\',autodelete=True, label=T(\'Imagen\')),format=\'%(razon_social)s\'\n    )\n\n\ndb.define_table(\'cf_especialidad\',\n    Field(\'id\',\'integer\'),\n    Field(\'codigo\',\'string\', label=T(\'Codigo\')),\n    Field(\'nombre\',\'string\', label=T(\'Nombre\')),    \n    format=\'%(codigo)s - %(nombre)s\'\n    )\ndb.cf_especialidad.codigo.requires=IS_NOT_IN_DB(db, db.cf_especialidad.codigo)\n\n#--------\ndb.define_table(\'cf_persona\',\n    Field(\'id\',\'integer\'),\n    Field(\'cedula\',\'string\',unique=True, label=T(\'Cedula\')),\n    Field(\'nombres\',\'string\', label=T(\'Nombres\')),\n    Field(\'apellidos\',\'string\' , label=T(\'Apellidos\')),\n    Field(\'ruta_foto\',\'upload\',autodelete=True, label=T(\'Foto\')),\n    Field(\'sexo\',\'string\',requires=IS_IN_SET([\'M\', \'F\', \'O\']),label=T(\'Sexo\')),\n    Field(\'usuario\',\'string\', label=T(\'Usuario\')),\n    Field(\'password\',\'password\', label=T(\'Pass\')),\n    Field(\'especialidad_id\',\'integer\', label=T(\'Especialidad\')),\n    Field(\'tlf_hab\',\'string\' , label=T(\'Tlf.Hab.\')) ,\n    Field(\'tlf_cel\',\'string\', label=T(\'Cel.\')),  \n    Field(\'direccion\',\'string\', label=T(\'Direccion\')),\n    Field(\'comision\',\'float\', label=T(\'Comision\'), default=0.00),\n    Field(\'email\',\'string\', label=T(\'Email\')),    \n    )\ndb.cf_persona.especialidad_id.requires = IS_IN_DB(db,db.cf_especialidad.id,\'%(nombre)s\')\ndb.cf_persona.cedula.requires = IS_NOT_IN_DB(db,db.cf_persona.cedula)\n\n#Susbsistema inventario productos\n#--------\n\ndb.define_table(\'in_categoria\',\n    Field(\'id\',\'integer\'),\n    Field(\'codigo\',\'string\', label=T(\'Codigo\')),\n    Field(\'nombre\',\'string\', label=T(\'Nombre\')),\n    Field(\'show_in_menu\',\'boolean\', label=T(\'Mostrar en menu\')),\n    Field(\'ruta_foto\',\'upload\',autodelete=True, label=T(\'Imagen\')), \n    format=\'%(codigo)s - %(nombre)s\'\n    )\ndb.in_categoria.codigo.requires=IS_NOT_IN_DB(db, db.in_categoria.codigo)\n\n\ndb.define_table(\'in_producto\',\n    Field(\'id\',\'integer\'),\n    Field(\'codigo\',\'string\', label=T(\'Codigo\')),\n    Field(\'nombre\',\'string\', label=T(\'Nombre\')),\n    Field(\'importe\',\'float\',  label=T(\'Importe\'), default=0.00),  \n    Field(\'iva\',\'float\',  label=T(\'I.V.A\'), default=0.00),  \n    Field(\'imp1\',\'float\',  label=T(\'Impuesto 1\'), default=0.00),  \n    Field(\'imp2\',\'float\',  label=T(\'Impuesto 2\'), default=0.00),  \n    Field(\'descuento\',\'float\', label=T(\'Descuento\'), default=0.00),\n    Field(\'costo\',\'float\', label=T(\'Costo\'), default=0.00),\n    Field(\'comision\',\'float\', label=T(\'Comision\'), default=0.00),\n    Field(\'inventario\',\'string\',requires=IS_IN_SET([\'S\', \'N\']),default="N" ,label=T(\'Inventario?\')),\n    Field(\'show_in_menu\',\'boolean\', label=T(\'Mostrar en menu\')),\n    Field(\'ruta_foto\',\'upload\',autodelete=True, label=T(\'Imagen\')), \n    Field(\'categoria_id\',\'integer\', requires=IS_IN_DB(db, db.in_categoria, \'%(codigo)s - %(nombre)s\')),  \n    format=\'%(codigo)s - %(nombre)s\'\n    )   \ndb.in_producto.codigo.requires=IS_NOT_IN_DB(db, db.in_producto.codigo)\n\n#tipos\n#IInicial, Ventas, Compras, Movmiento Manuales\n#Con una cada linea de factura guardada un movimiento aqui\n#Con cada compra otra linea aca \ndb.define_table(\'in_mov\',\n    Field(\'id\',\'integer\'),  \n    Field(\'fecha\',\'date\', label=T(\'Fecha\')),        \n    Field(\'registro\',\'datetime\', label=T(\'Registro\')),        \n    Field(\'tipo\',\'string\',requires=IS_IN_SET([\'I\', \'V\', \'C\',\'M\']),label=T(\'Tipo Mov.\')),\n    Field(\'documento\',\'string\', label=T(\'Nro.Doc.\')),\n    Field(\'descripcion\',\'string\', label=T(\'Descripcion\')),\n    Field(\'entrada\',\'integer\', label=T(\'Entrada\')),  \n    Field(\'costo\',\'float\',  label=T(\'Costo\'), default=0.00),  \n    Field(\'salida\',\'integer\', label=T(\'Salida\')),  \n    Field(\'precio\',\'float\',  label=T(\'Precio\'), default=0.00),  \n    Field(\'producto_id\',\'integer\', requires=IS_IN_DB(db, db.in_producto, \'%(codigo)s - %(nombre)s\')),          \n    Field(\'usuario_id\',\'integer\', requires=IS_IN_DB(db, db.cf_persona, \'%(nombres)s - %(apellidos)s\')),  \n    format=\'%(fecha)s\',\n    )\n\n#Susbsistema caja\n#--------\n\ndb.define_table(\'mv_caja\',\n    Field(\'id\',\'integer\'),  \n    Field(\'fecha\',\'date\', label=T(\'Fecha\')),\n    Field(\'apertura\',\'datetime\', label=T(\'Apertura\')),\n    Field(\'cierre\',\'datetime\', label=T(\'Cierre\')),\n    Field(\'descripcion\',\'string\', label=T(\'Descripcion\')),\n    Field(\'monto_apertura\',\'float\',  label=T(\'Monto Apertura\'), default=0.00),  \n    Field(\'monto_cierre\',\'float\',  label=T(\'Monto Cierre\'), default=0.00),      \n    Field(\'usuario_id\',\'integer\', requires=IS_IN_DB(db, db.cf_persona, \'%(nombres)s - %(apellidos)s\')),  \n    format=\'%(fecha)s\',\n    )\n\ndb.define_table(\'mv_caja_det\',\n    Field(\'id\',\'integer\'),  \n    Field(\'fecha\',\'datetime\', label=T(\'Fecha\')),    \n    Field(\'concepto\',\'string\', label=T(\'Concepto\')),          \n    Field(\'entrada\',\'float\',  label=T(\'Entrada\'), default=0.00),  \n    Field(\'salida\',\'float\',  label=T(\'Salida\'), default=0.00),  \n    Field(\'mv_caja_id\',\'integer\', requires=IS_IN_DB(db, db.mv_caja, \'%(fecha)s\')),      \n    Field(\'usuario_id\',\'integer\', requires=IS_IN_DB(db, db.cf_persona, \'%(nombres)s - %(apellidos)s\')),  \n    format=\'%(fecha)s\',\n    )\n\n\n#Susbsistema facturas\n#--------\n#--------\ndb.define_table(\'fc_factura\',\n    Field(\'id\',\'integer\'),\n    Field(\'codigo\',\'string\',label=T(\'Codigo\')),\n    Field(\'fecha\',\'date\',label=T(\'Fecha\')),\n    Field(\'nota\',\'string\',label=T(\'Nota\')),    \n    Field(\'referencia\',\'string\',label=T(\'Referencia\')),   #referencia a facturas o presupuestos o notas de la misma tables\n    Field(\'iva\',\'float\',default=0.00,label=T(\'I.V.A\')),\n    Field(\'descuento\',\'float\',default=0.00,label=T(\'Descuento\')),\n    Field(\'recargo\',\'float\',default=0.00,label=T(\'Recargo\')),\n    Field(\'estado\',\'integer\', default=0,label=T(\'Estado\')), #status  0 creada, 1 cobrada \n    Field(\'cliente_id\',\'integer\', requires=IS_IN_DB(db, db.cf_cliente, \'%(nombre)s\')),\n    Field(\'usuario_id\',\'integer\', requires=IS_IN_DB(db, db.cf_persona, \'%(nombres)s - %(apellidos)s\')),  \n    )\n\n\ndb.define_table(\'fc_factura_det\',\n    Field(\'id\',\'integer\'),\n    Field(\'descripcion\',\'string\',label=T(\'Descripcion\')),\n    Field(\'cantidad\',\'integer\',default=0,label=T(\'Cantidad\')),\n    Field(\'importe\',\'float\',default=0.00,label=T(\'Importe\')),    \n    Field(\'impuesto\',\'float\',default=0.00,label=T(\'Impuesto\')),    \n    Field(\'total\',\'float\',default=0.00,label=T(\'Total\')),    \n    Field(\'comision\',\'float\',default=0.00,label=T(\'Comision\')),    \n    Field(\'factura_id\',\'integer\'),\n    Field(\'producto_id\',\'integer\'),\n    Field(\'persona_id\',\'integer\'), #para pago de comisiones, una persona la puede atender varios especialistas\n    )\n\n\n#Susbsistema cobros\n#--------\ndb.define_table(\'fc_forma_pago\',\n    Field(\'id\',\'integer\'),  \n    Field(\'codigo\',\'string\', label=T(\'Codigo\')),\n    Field(\'nombre\',\'string\', label=T(\'Nombre\')),format=\'%(nombre)s\',\n    )\n\n\n#--------\ndb.define_table(\'fc_cobro_det\',\n    Field(\'id\',\'integer\'),\n    Field(\'fecha\',\'date\', label=T(\'Fecha\')),\n    Field(\'registro\',\'datetime\', label=T(\'Registro\')),\n    Field(\'referencia\',\'string\', label=T(\'Referencia\')),   \n    Field(\'monto\',\'float\', label=T(\'Monto\'), default=0.00),\n    Field(\'descripcion\',\'string\', label=T(\'Descripcion\')),  \n    Field(\'forma_pago_id\',\'integer\',requires=IS_IN_DB(db, db.fc_forma_pago, \'%(codigo)s - %(nombre)s\')),\n    Field(\'factura_id\',\'integer\',requires=IS_IN_DB(db, db.fc_factura, \'%(codigo)s\')),    \n    Field(\'usuario_id\',\'integer\', requires=IS_IN_DB(db, db.cf_persona, \'%(nombres)s - %(apellidos)s\')),  \n    )\n\n\nclass Factura:\n    def __init__(self):\n        self.fact=\'fc_factura\'    \n        self.det=\'fc_factura_det\'    \n\n    def insertar_fact(self,nota,referencia,descuento,recargo,cliente,personaid,prodid,fact_id=None):\n        if fact_id == None:\n            row=db[self.fact].insert(fecha=datetime.datetime.now().date(),\n                            nota=nota,\n                            referencia=referencia,\n                            descuento=descuento,\n                            iva=settings.iva\n                            recargo=recargo,\n                            cliente_id=cliente,                            \n                            usuario_id=session.auth.user.id\n                            )\n            if row:\n                rowdet=self.insertar_det(row,prodid,personaid)\n                if rowdet:\n                    return row\n                else:\n                    return 0\n            else:\n                return 0\n        else:\n            rowdet=self.insertar_det(fact_id,prodid,personaid)\n            if rowdet:\n                return rowdet\n            else:\n                return 0\n                                    \n\n    def insertar_det(self,facid,prodid,perid):\n        rowprod=self.get_prod_data(prodid)\n        rowper=self.get_person_data(perid)\n        \n        if rowprod:\n            importe=rowprod[0].importe\n            desc=rowprod[0].nombre\n            impuesto=importe*(settings.impuesto/100)\n            total=importe+impuesto\n            if rowprod[0].inventario==\'S\':\n                comision=0.00\n            else:\n                comision=importe*(rowper[0].comision/100)\n            row=db[self.det].insert(cantidad=1,\n                            factura_id=facid,\n                            persona_id=perid,\n                            producto_id=prodid,\n                            importe=importe,\n                            impuesto=impuesto,\n                            total=total,\n                            comision=comision,\n                            descripcion=desc\n                            )\n            if row:\n                if rowprod[0].inventario==\'S\':     #solo si el producto es marcado como inventariable\n                    rw=self.sale_inv(prodid,"Salida por venta Factura id: %s" % facid,rowprod.importe)\n\n            return row            \n\n    #si eliminas la factura doy por sentado que se eliminan las lineas\n    #y hace resverso de todas las lineas contra el inventario\n    #por eso hay que llamar  eliminar det tantas lineas como tenga\n    #\n    #VERIFICAR que no tenga cobros la factura para poder borrarla\n    #\n    def eliminar_fact(self,factid):        \n\n        #selecta para ver si no tiene estatus 1 cobrada\n        row3=db( (db[self.fact].id == factid) & (db[self.fact].estado == 0) ).select()\n        if row3:\n            row3=db(db[self.det].factura_id == factid).select()\n            for row in row3:\n                self.eliminar_det(row.id)\n            row2=db(db[self.fact].id == factid).delete()\n\n        return row2\n        \n    #Soolo elimino la linea solicitada\n    def eliminar_det(self,detid):\n        rw=db(db[self.det].id == detid).select()\n        row=db(db[self.det].id == detid).delete()\n        facid=rw[0].factura_id\n        prodid=rw[0].producto_id\n        costo=rw[0].importe\n        rowprod=self.get_prod_data(prodid)\n\n        if row:\n            if rowprod.inventario==\'S\': #solo si el producto es marcado como inventariable\n                rw=self.entra_inv(prodid,costo,"Entrada por reverso de linea de factura id: %s" % facid)\n            return row\n        \n    def entra_inv(self,prodid,costo,desc):        #con cada borrado de linea de factura por ejemplo\n        inv=Inventario()\n        row=inv.insertar("RV",prodid,"",desc,Costo=costo,Cant_Entra=1)      #RV reverso de venta\n        return row\n\n    def sale_inv(self,prodid,desc,precio):         #con cada venta o linea de factura por ejemplo\n        inv=Inventario()\n        row=inv.insertar("V",prodid,"",desc,Cant_Sale=1,Precio=precio)      #RV reverso de venta\n        return row\n    \n    def get_prod_data(self,prodid):\n        row=db(db.in_producto.id == prodid).select()        \n        return row\n    \n    def get_person_data(self,perid):\n        row=db(db.cf_persona.id == perid).select()\n        return row\n\n    def get_head(self,fact_id):        \n        row=db( (db.fc_factura.id == fact_id) & (db.fc_factura.cliente_id == db.cf_cliente.id) ).select()\n        \n        return row[0]\n\n\n    def get_lines(self,fact_id):\n        row=db( (db.fc_factura_det.factura_id==fact_id) & (db.fc_factura_det.producto_id == db.in_producto.id) ).select()\n\n        return row\n\n\nclass Inventario:\n\n    def __init__(self):\n        self.tabla=\'in_mov\'\n\n    def insertar(self,Tipo,Producto,Documento,Descripcion,Cant_Entra=0,Costo=0.00,Cant_Sale=0,Precio=0.00):\n        row=db[self.tabla].insert(fecha=datetime.datetime.now().date(),\n                            registro=datetime.datetime.now(),\n                            tipo=Tipo,\n                            producto_id=Producto,\n                            documento=Documento,\n                            descripcion=Descripcion,\n                            entrada=Cant_Entra,\n                            costo=Costo,\n                            salida=Cant_Sale,\n                            precio=Precio,\n                            usuario_id=session.auth.user.id\n                                    )\n\n        return row\n\n    def eliminar(self,id):\n        row=db(db[self.tabla].id == id).delete()\n        return row\n\n\n\nclass Cliente:\n\n    def __init__(self):\n        self.tabla=\'cf_cliente\'\n\n    def quick_insert(self,rif,nombre,juridico=0):\n        row=db[self.tabla].insert(nombre=nombre,\n                            rif=rif,\n                            juridico=juridico                            \n                                    )\n\n        return row\n\n    def eliminar(self,id):\n        row=db(db[self.tabla].id == id).delete()\n        return row\n\nclass Cobro:\n    \n    def __init__(self):\n        self.tabla=\'fc_cobro_det\'\n\n    def insert(self,formpago,factura,monto,referencia="",descripcion=""):\n        \n        if request.cookies.has_key(\'caja_id\'):\n            row=db[self.tabla].insert(registro=datetime.datetime.now(),\n                            fecha=datetime.datetime.now().date(),                   \n                            referencia=referencia,\n                            monto=float(monto),\n                            descripcion=descripcion,\n                            forma_pago_id=formpago,\n                            factura_id=factura,                            \n                            usuario_id=session.auth.user.id)            \n            if row:\n                rc=db(db.fc_forma_pago.id == formpago).select()\n                if rc:\n                    if rc[0].nombre in "EFECTIVO,efectivo,Efectivo":\n                        rw=self.insert_caja(monto,descripcion,factura)\n            \n            return row\n\n    def delete(self,id):\n        rc=db(db[self.tabla].id == id).select()\n        row=db(db[self.tabla].id == id).delete()        \n        if row:\n            rc2=db(db.fc_forma_pago.id == rc[0].forma_pago_id).select()\n            if rc2:\n                if rc2[0].nombre in "EFECTIVO,efectivo,Efectivo":\n                    rw=self.insert_caja(rc[0].monto,"Reverso de de pago en efectivo","")\n\n        return row\n\n    def insert_caja(self,monto,referencia,factura):\n        #ukltima caja abierta, debe haber una        \n        if request.cookies.has_key(\'caja_id\'):\n            elid=request.cookies[\'caja_id\'].value\n            #print "caja",request.cookies[\'caja_id\'].value\n            if elid:\n                rc2=db.mv_caja_det.insert(fecha=datetime.datetime.now(),\n                            concepto=referencia,\n                            entrada=monto,                \n                            mv_caja_id=elid,\n                            usuario_id=session.auth.user.id)        \n        \n        return rc2\n\n\n\n\n\n\n\n\n\n'
p7
sS'snapshot'
p8
(dp9
S'exception'
p10
(dp11
S'__getslice__'
p12
S"<method-wrapper '__getslice__' of exceptions.SyntaxError object>"
p13
sS'text'
p14
S"'                            recargo=recargo,\\n'"
p15
sS'__str__'
p16
S"<method-wrapper '__str__' of exceptions.SyntaxError object>"
p17
sS'__reduce__'
p18
S'<built-in method __reduce__ of exceptions.SyntaxError object>'
p19
sS'__dict__'
p20
S'{}'
p21
sS'__sizeof__'
p22
S'<built-in method __sizeof__ of exceptions.SyntaxError object>'
p23
sS'__init__'
p24
S"<method-wrapper '__init__' of exceptions.SyntaxError object>"
p25
sS'__setattr__'
p26
S"<method-wrapper '__setattr__' of exceptions.SyntaxError object>"
p27
sS'__reduce_ex__'
p28
S'<built-in method __reduce_ex__ of exceptions.SyntaxError object>'
p29
sS'__new__'
p30
S'<built-in method __new__ of type object>'
p31
sS'__format__'
p32
S'<built-in method __format__ of exceptions.SyntaxError object>'
p33
sS'__class__'
p34
S"<type 'exceptions.SyntaxError'>"
p35
sS'filename'
p36
S"'/home/wasuaje/Documentos/desarrollo/web2py6/applications/pysalon/models/db.py'"
p37
sS'lineno'
p38
S'306'
p39
sS'msg'
p40
S"'invalid syntax'"
p41
sS'__doc__'
p42
S"'Invalid syntax.'"
p43
sS'__getitem__'
p44
S"<method-wrapper '__getitem__' of exceptions.SyntaxError object>"
p45
sS'__setstate__'
p46
S'<built-in method __setstate__ of exceptions.SyntaxError object>'
p47
sS'__getattribute__'
p48
S"<method-wrapper '__getattribute__' of exceptions.SyntaxError object>"
p49
sS'print_file_and_line'
p50
S'None'
p51
sS'args'
p52
S"('invalid syntax', ('/home/wasuaje/Documentos/desarrollo/web2py6/applications/pysalon/models/db.py', 306, 35, '                            recargo=recargo,\\n'))"
p53
sS'__subclasshook__'
p54
S'<built-in method __subclasshook__ of type object>'
p55
sS'offset'
p56
S'35'
p57
sS'__unicode__'
p58
S'<built-in method __unicode__ of exceptions.SyntaxError object>'
p59
sS'__delattr__'
p60
S"<method-wrapper '__delattr__' of exceptions.SyntaxError object>"
p61
sS'__repr__'
p62
S"<method-wrapper '__repr__' of exceptions.SyntaxError object>"
p63
sS'__hash__'
p64
S"<method-wrapper '__hash__' of exceptions.SyntaxError object>"
p65
ssS'evalue'
p66
S'invalid syntax (db.py, line 306)'
p67
sS'request'
p68
cgluon.html
XML_unpickle
p69
(S'sld\x00\x00<div><table><tr><td style="font-weight:bold;vertical-align:top;">ajax</td><td style="vertical-align:top;">:</td><td><div>False</div></td></tr><tr><td style="font-weight:bold;vertical-align:top;">application</td><td style="vertical-align:top;">:</td><td><div>pysalon</div></td></tr><tr><td style="font-weight:bold;vertical-align:top;">args</td><td style="vertical-align:top;">:</td><td><div><table></table></div></td></tr><tr><td style="font-weight:bold;vertical-align:top;">cid</td><td style="vertical-align:top;">:</td><td><div>None</div></td></tr><tr><td style="font-weight:bold;vertical-align:top;">client</td><td style="vertical-align:top;">:</td><td><div>127.0.0.1</div></td></tr><tr><td style="font-weight:bold;vertical-align:top;">controller</td><td style="vertical-align:top;">:</td><td><div>pos</div></td></tr><tr><td style="font-weight:bold;vertical-align:top;">cookies</td><td style="vertical-align:top;">:</td><td><div><table><tr><td style="font-weight:bold;vertical-align:top;">caja_id</td><td style="vertical-align:top;">:</td><td><div>18<table><tr><td style="font-weight:bold;vertical-align:top;">comment</td><td style="vertical-align:top;">:</td><td><div></div></td></tr><tr><td style="font-weight:bold;vertical-align:top;">domain</td><td style="vertical-align:top;">:</td><td><div></div></td></tr><tr><td style="font-weight:bold;vertical-align:top;">expires</td><td style="vertical-align:top;">:</td><td><div></div></td></tr><tr><td style="font-weight:bold;vertical-align:top;">httponly</td><td style="vertical-align:top;">:</td><td><div></div></td></tr><tr><td style="font-weight:bold;vertical-align:top;">max-age</td><td style="vertical-align:top;">:</td><td><div></div></td></tr><tr><td style="font-weight:bold;vertical-align:top;">path</td><td style="vertical-align:top;">:</td><td><div></div></td></tr><tr><td style="font-weight:bold;vertical-align:top;">secure</td><td style="vertical-align:top;">:</td><td><div></div></td></tr><tr><td style="font-weight:bold;vertical-align:top;">version</td><td style="vertical-align:top;">:</td><td><div></div></td></tr></table></div></td></tr><tr><td style="font-weight:bold;vertical-align:top;">session_id_admin</td><td style="vertical-align:top;">:</td><td><div>127.0.0.1-fa0dc796-78de-482e-b0a3-acd5704a64f8<table><tr><td style="font-weight:bold;vertical-align:top;">comment</td><td style="vertical-align:top;">:</td><td><div></div></td></tr><tr><td style="font-weight:bold;vertical-align:top;">domain</td><td style="vertical-align:top;">:</td><td><div></div></td></tr><tr><td style="font-weight:bold;vertical-align:top;">expires</td><td style="vertical-align:top;">:</td><td><div></div></td></tr><tr><td style="font-weight:bold;vertical-align:top;">httponly</td><td style="vertical-align:top;">:</td><td><div></div></td></tr><tr><td style="font-weight:bold;vertical-align:top;">max-age</td><td style="vertical-align:top;">:</td><td><div></div></td></tr><tr><td style="font-weight:bold;vertical-align:top;">path</td><td style="vertical-align:top;">:</td><td><div></div></td></tr><tr><td style="font-weight:bold;vertical-align:top;">secure</td><td style="vertical-align:top;">:</td><td><div></div></td></tr><tr><td style="font-weight:bold;vertical-align:top;">version</td><td style="vertical-align:top;">:</td><td><div></div></td></tr></table></div></td></tr><tr><td style="font-weight:bold;vertical-align:top;">session_id_admotion</td><td style="vertical-align:top;">:</td><td><div>127.0.0.1-1ee0da6d-e357-43b0-9a7e-f24c9c14ed79<table><tr><td style="font-weight:bold;vertical-align:top;">comment</td><td style="vertical-align:top;">:</td><td><div></div></td></tr><tr><td style="font-weight:bold;vertical-align:top;">domain</td><td style="vertical-align:top;">:</td><td><div></div></td></tr><tr><td style="font-weight:bold;vertical-align:top;">expires</td><td style="vertical-align:top;">:</td><td><div></div></td></tr><tr><td style="font-weight:bold;vertical-align:top;">httponly</td><td style="vertical-align:top;">:</td><td><div></div></td></tr><tr><td style="font-weight:bold;vertical-align:top;">max-age</td><td style="vertical-align:top;">:</td><td><div></div></td></tr><tr><td style="font-weight:bold;vertical-align:top;">path</td><td style="vertical-align:top;">:</td><td><div></div></td></tr><tr><td style="font-weight:bold;vertical-align:top;">secure</td><td style="vertical-align:top;">:</td><td><div></div></td></tr><tr><td style="font-weight:bold;vertical-align:top;">version</td><td style="vertical-align:top;">:</td><td><div></div></td></tr></table></div></td></tr><tr><td style="font-weight:bold;vertical-align:top;">session_id_eupdf</td><td style="vertical-align:top;">:</td><td><div>127.0.0.1-bf272993-a3a5-444e-b7b6-748cfe6363e0<table><tr><td style="font-weight:bold;vertical-align:top;">comment</td><td style="vertical-align:top;">:</td><td><div></div></td></tr><tr><td style="font-weight:bold;vertical-align:top;">domain</td><td style="vertical-align:top;">:</td><td><div></div></td></tr><tr><td style="font-weight:bold;vertical-align:top;">expires</td><td style="vertical-align:top;">:</td><td><div></div></td></tr><tr><td style="font-weight:bold;vertical-align:top;">httponly</td><td style="vertical-align:top;">:</td><td><div></div></td></tr><tr><td style="font-weight:bold;vertical-align:top;">max-age</td><td style="vertical-align:top;">:</td><td><div></div></td></tr><tr><td style="font-weight:bold;vertical-align:top;">path</td><td style="vertical-align:top;">:</td><td><div></div></td></tr><tr><td style="font-weight:bold;vertical-align:top;">secure</td><td style="vertical-align:top;">:</td><td><div></div></td></tr><tr><td style="font-weight:bold;vertical-align:top;">version</td><td style="vertical-align:top;">:</td><td><div></div></td></tr></table></div></td></tr><tr><td style="font-weight:bold;vertical-align:top;">session_id_pysalon</td><td style="vertical-align:top;">:</td><td><div>127.0.0.1-4e9d6685-e596-4ce0-ab4c-f3a03db1cdd6<table><tr><td style="font-weight:bold;vertical-align:top;">comment</td><td style="vertical-align:top;">:</td><td><div></div></td></tr><tr><td style="font-weight:bold;vertical-align:top;">domain</td><td style="vertical-align:top;">:</td><td><div></div></td></tr><tr><td style="font-weight:bold;vertical-align:top;">expires</td><td style="vertical-align:top;">:</td><td><div></div></td></tr><tr><td style="font-weight:bold;vertical-align:top;">httponly</td><td style="vertical-align:top;">:</td><td><div></div></td></tr><tr><td style="font-weight:bold;vertical-align:top;">max-age</td><td style="vertical-align:top;">:</td><td><div></div></td></tr><tr><td style="font-weight:bold;vertical-align:top;">path</td><td style="vertical-align:top;">:</td><td><div></div></td></tr><tr><td style="font-weight:bold;vertical-align:top;">secure</td><td style="vertical-align:top;">:</td><td><div></div></td></tr><tr><td style="font-weight:bold;vertical-align:top;">version</td><td style="vertical-align:top;">:</td><td><div></div></td></tr></table></div></td></tr></table></div></td></tr><tr><td style="font-weight:bold;vertical-align:top;">env</td><td style="vertical-align:top;">:</td><td><div><table><tr><td style="font-weight:bold;vertical-align:top;">HTTP_ACCEPT</td><td style="vertical-align:top;">:</td><td><div>text/html,application/xhtml+xml,application/xml;q=0.9,*/*;q=0.8</div></td></tr><tr><td style="font-weight:bold;vertical-align:top;">HTTP_ACCEPT_ENCODING</td><td style="vertical-align:top;">:</td><td><div>gzip, deflate</div></td></tr><tr><td style="font-weight:bold;vertical-align:top;">HTTP_ACCEPT_LANGUAGE</td><td style="vertical-align:top;">:</td><td><div>es-MX,es-ES;q=0.8,es-AR;q=0.7,es;q=0.5,en-US;q=0.3,en;q=0.2</div></td></tr><tr><td style="font-weight:bold;vertical-align:top;">HTTP_CACHE_CONTROL</td><td style="vertical-align:top;">:</td><td><div>max-age=0</div></td></tr><tr><td style="font-weight:bold;vertical-align:top;">HTTP_CONNECTION</td><td style="vertical-align:top;">:</td><td><div>keep-alive</div></td></tr><tr><td style="font-weight:bold;vertical-align:top;">HTTP_COOKIE</td><td style="vertical-align:top;">:</td><td><div>caja_id=18; session_id_admin=127.0.0.1-fa0dc796-78de-482e-b0a3-acd5704a64f8; session_id_admotion=127.0.0.1-1ee0da6d-e357-43b0-9a7e-f24c9c14ed79; session_id_eupdf=127.0.0.1-bf272993-a3a5-444e-b7b6-748cfe6363e0; session_id_pysalon=127.0.0.1-4e9d6685-e596-4ce0-ab4c-f3a03db1cdd6</div></td></tr><tr><td style="font-weight:bold;vertical-align:top;">HTTP_HOST</td><td style="vertical-align:top;">:</td><td><div>localhost:8000</div></td></tr><tr><td style="font-weight:bold;vertical-align:top;">HTTP_USER_AGENT</td><td style="vertical-align:top;">:</td><td><div>Mozilla/5.0 (X11; Ubuntu; Linux i686; rv:29.0) Gecko/20100101 Firefox/29.0</div></td></tr><tr><td style="font-weight:bold;vertical-align:top;">PATH_INFO</td><td style="vertical-align:top;">:</td><td><div>/pysalon/pos/index</div></td></tr><tr><td style="font-weight:bold;vertical-align:top;">QUERY_STRING</td><td style="vertical-align:top;">:</td><td><div></div></td></tr><tr><td style="font-weight:bold;vertical-align:top;">REMOTE_ADDR</td><td style="vertical-align:top;">:</td><td><div>127.0.0.1</div></td></tr><tr><td style="font-weight:bold;vertical-align:top;">REMOTE_PORT</td><td style="vertical-align:top;">:</td><td><div>49324</div></td></tr><tr><td style="font-weight:bold;vertical-align:top;">REQUEST_METHOD</td><td style="vertical-align:top;">:</td><td><div>GET</div></td></tr><tr><td style="font-weight:bold;vertical-align:top;">SCRIPT_NAME</td><td style="vertical-align:top;">:</td><td><div></div></td></tr><tr><td style="font-weight:bold;vertical-align:top;">SERVER_NAME</td><td style="vertical-align:top;">:</td><td><div>wasuaje-desktop</div></td></tr><tr><td style="font-weight:bold;vertical-align:top;">SERVER_PORT</td><td style="vertical-align:top;">:</td><td><div>8000</div></td></tr><tr><td style="font-weight:bold;vertical-align:top;">SERVER_PROTOCOL</td><td style="vertical-align:top;">:</td><td><div>HTTP/1.1</div></td></tr><tr><td style="font-weight:bold;vertical-align:top;">SERVER_SOFTWARE</td><td style="vertical-align:top;">:</td><td><div>Rocket 1.2.6</div></td></tr><tr><td style="font-weight:bold;vertical-align:top;">app_folders</td><td style="vertical-align:top;">:</td><td><div>set([&#x27;/home/wasuaje/Documentos/desarrollo/web2py6/applications/admin/&#x27;, &#x27;/home/wasuaje/Documentos/desarrollo/web2py6/applications/pysalon/&#x27;])</div></td></tr><tr><td style="font-weight:bold;vertical-align:top;">applications_parent</td><td style="vertical-align:top;">:</td><td><div>/home/wasuaje/Documentos/desarrollo/web2py6</div></td></tr><tr><td style="font-weight:bold;vertical-align:top;">cmd_args</td><td style="vertical-align:top;">:</td><td><div><table></table></div></td></tr><tr><td style="font-weight:bold;vertical-align:top;">cmd_options</td><td style="vertical-align:top;">:</td><td><div>&lt;Values at 0x908fc4c: {&#x27;verbose&#x27;: False, &#x27;ip&#x27;: &#x27;127.0.0.1&#x27;, &#x27;debuglevel&#x27;: 30, &#x27;with_scheduler&#x27;: False, &#x27;ips&#x27;: [&#x27;10.1.125.41&#x27;, &#x27;127.0.1.1&#x27;], &#x27;shutdown_timeout&#x27;: 5, &#x27;taskbar&#x27;: False, &#x27;with_coverage&#x27;: False, &#x27;port&#x27;: 8000, &#x27;maxthreads&#x27;: None, &#x27;softcron&#x27;: False, &#x27;server_name&#x27;: &#x27;wasuaje-desktop&#x27;, &#x27;bpython&#x27;: False, &#x27;nogui&#x27;: False, &#x27;pid_filename&#x27;: &#x27;httpserver.pid&#x27;, &#x27;extcron&#x27;: False, &#x27;runcron&#x27;: False, &#x27;run_system_tests&#x27;: False, &#x27;test&#x27;: None, &#x27;folder&#x27;: &#x27;/home/wasuaje/Documentos/desarrollo/web2py6&#x27;, &#x27;config&#x27;: &#x27;&#x27;, &#x27;minthreads&#x27;: None, &#x27;shell&#x27;: None, &#x27;run&#x27;: &#x27;&#x27;, &#x27;log_filename&#x27;: &#x27;httpserver.log&#x27;, &#x27;profiler_dir&#x27;: None, &#x27;args&#x27;: [&#x27;&#x27;], &#x27;socket_timeout&#x27;: 5, &#x27;ssl_ca_certificate&#x27;: None, &#x27;scheduler&#x27;: None, &#x27;interfaces&#x27;: None, &#x27;ssl_private_key&#x27;: &#x27;&#x27;, &#x27;scheduler_groups&#x27;: None, &#x27;password&#x27;: &#x27;w&#x27;, &#x27;request_queue_size&#x27;: 5, &#x27;ssl_certificate&#x27;: &#x27;&#x27;, &#x27;cronjob&#x27;: False, &#x27;numthreads&#x27;: None, &#x27;quiet&#x27;: False, &#x27;import_models&#x27;: False, &#x27;timeout&#x27;: 10, &#x27;plain&#x27;: False, &#x27;nobanner&#x27;: False}&gt;</div></td></tr><tr><td style="font-weight:bold;vertical-align:top;">db_sessions</td><td style="vertical-align:top;">:</td><td><div>set([])</div></td></tr><tr><td style="font-weight:bold;vertical-align:top;">debugging</td><td style="vertical-align:top;">:</td><td><div>False</div></td></tr><tr><td style="font-weight:bold;vertical-align:top;">gluon_parent</td><td style="vertical-align:top;">:</td><td><div>/home/wasuaje/Documentos/desarrollo/web2py6</div></td></tr><tr><td style="font-weight:bold;vertical-align:top;">http_accept</td><td style="vertical-align:top;">:</td><td><div>text/html,application/xhtml+xml,application/xml;q=0.9,*/*;q=0.8</div></td></tr><tr><td style="font-weight:bold;vertical-align:top;">http_accept_encoding</td><td style="vertical-align:top;">:</td><td><div>gzip, deflate</div></td></tr><tr><td style="font-weight:bold;vertical-align:top;">http_accept_language</td><td style="vertical-align:top;">:</td><td><div>es-MX,es-ES;q=0.8,es-AR;q=0.7,es;q=0.5,en-US;q=0.3,en;q=0.2</div></td></tr><tr><td style="font-weight:bold;vertical-align:top;">http_cache_control</td><td style="vertical-align:top;">:</td><td><div>max-age=0</div></td></tr><tr><td style="font-weight:bold;vertical-align:top;">http_connection</td><td style="vertical-align:top;">:</td><td><div>keep-alive</div></td></tr><tr><td style="font-weight:bold;vertical-align:top;">http_cookie</td><td style="vertical-align:top;">:</td><td><div>caja_id=18; session_id_admin=127.0.0.1-fa0dc796-78de-482e-b0a3-acd5704a64f8; session_id_admotion=127.0.0.1-1ee0da6d-e357-43b0-9a7e-f24c9c14ed79; session_id_eupdf=127.0.0.1-bf272993-a3a5-444e-b7b6-748cfe6363e0; session_id_pysalon=127.0.0.1-4e9d6685-e596-4ce0-ab4c-f3a03db1cdd6</div></td></tr><tr><td style="font-weight:bold;vertical-align:top;">http_host</td><td style="vertical-align:top;">:</td><td><div>localhost:8000</div></td></tr><tr><td style="font-weight:bold;vertical-align:top;">http_user_agent</td><td style="vertical-align:top;">:</td><td><div>Mozilla/5.0 (X11; Ubuntu; Linux i686; rv:29.0) Gecko/20100101 Firefox/29.0</div></td></tr><tr><td style="font-weight:bold;vertical-align:top;">is_jython</td><td style="vertical-align:top;">:</td><td><div>False</div></td></tr><tr><td style="font-weight:bold;vertical-align:top;">is_pypy</td><td style="vertical-align:top;">:</td><td><div>False</div></td></tr><tr><td style="font-weight:bold;vertical-align:top;">is_source</td><td style="vertical-align:top;">:</td><td><div>True</div></td></tr><tr><td style="font-weight:bold;vertical-align:top;">local_hosts</td><td style="vertical-align:top;">:</td><td><div><table><tr><td><div>wasuaje-desktop</div></td></tr><tr><td><div>::ffff:127.0.0.1</div></td></tr><tr><td><div>::1</div></td></tr><tr><td><div>10.1.125.41</div></td></tr><tr><td><div>127.0.1.1</div></td></tr><tr><td><div>127.0.0.1</div></td></tr></table></div></td></tr><tr><td style="font-weight:bold;vertical-align:top;">path_info</td><td style="vertical-align:top;">:</td><td><div>/pysalon/pos/index</div></td></tr><tr><td style="font-weight:bold;vertical-align:top;">query_string</td><td style="vertical-align:top;">:</td><td><div></div></td></tr><tr><td style="font-weight:bold;vertical-align:top;">remote_addr</td><td style="vertical-align:top;">:</td><td><div>127.0.0.1</div></td></tr><tr><td style="font-weight:bold;vertical-align:top;">remote_port</td><td style="vertical-align:top;">:</td><td><div>49324</div></td></tr><tr><td style="font-weight:bold;vertical-align:top;">request_method</td><td style="vertical-align:top;">:</td><td><div>GET</div></td></tr><tr><td style="font-weight:bold;vertical-align:top;">request_uri</td><td style="vertical-align:top;">:</td><td><div>/pysalon/pos/index</div></td></tr><tr><td style="font-weight:bold;vertical-align:top;">script_name</td><td style="vertical-align:top;">:</td><td><div></div></td></tr><tr><td style="font-weight:bold;vertical-align:top;">server_name</td><td style="vertical-align:top;">:</td><td><div>wasuaje-desktop</div></td></tr><tr><td style="font-weight:bold;vertical-align:top;">server_port</td><td style="vertical-align:top;">:</td><td><div>8000</div></td></tr><tr><td style="font-weight:bold;vertical-align:top;">server_protocol</td><td style="vertical-align:top;">:</td><td><div>HTTP/1.1</div></td></tr><tr><td style="font-weight:bold;vertical-align:top;">server_software</td><td style="vertical-align:top;">:</td><td><div>Rocket 1.2.6</div></td></tr><tr><td style="font-weight:bold;vertical-align:top;">web2py_path</td><td style="vertical-align:top;">:</td><td><div>/home/wasuaje/Documentos/desarrollo/web2py6</div></td></tr><tr><td style="font-weight:bold;vertical-align:top;">web2py_version</td><td style="vertical-align:top;">:</td><td><div>2.9.5-stable+timestamp.2014.03.16.02.35.39</div></td></tr><tr><td style="font-weight:bold;vertical-align:top;">wsgi.errors</td><td style="vertical-align:top;">:</td><td><div>&lt;open file &#x27;&lt;stderr&gt;&#x27;, mode &#x27;w&#x27; at 0xb75250d0&gt;</div></td></tr><tr><td style="font-weight:bold;vertical-align:top;">wsgi.file_wrapper</td><td style="vertical-align:top;">:</td><td><div>&lt;class wsgiref.util.FileWrapper at 0x904ea1c&gt;</div></td></tr><tr><td style="font-weight:bold;vertical-align:top;">wsgi.input</td><td style="vertical-align:top;">:</td><td><div>&lt;socket._fileobject object at 0xae34e8ec&gt;</div></td></tr><tr><td style="font-weight:bold;vertical-align:top;">wsgi.multiprocess</td><td style="vertical-align:top;">:</td><td><div>False</div></td></tr><tr><td style="font-weight:bold;vertical-align:top;">wsgi.multithread</td><td style="vertical-align:top;">:</td><td><div>True</div></td></tr><tr><td style="font-weight:bold;vertical-align:top;">wsgi.run_once</td><td style="vertical-align:top;">:</td><td><div>False</div></td></tr><tr><td style="font-weight:bold;vertical-align:top;">wsgi.url_scheme</td><td style="vertical-align:top;">:</td><td><div>http</div></td></tr><tr><td style="font-weight:bold;vertical-align:top;">wsgi.version</td><td style="vertical-align:top;">:</td><td><div><table><tr><td><div>1</div></td></tr><tr><td><div>0</div></td></tr></table></div></td></tr><tr><td style="font-weight:bold;vertical-align:top;">wsgi_errors</td><td style="vertical-align:top;">:</td><td><div>&lt;open file &#x27;&lt;stderr&gt;&#x27;, mode &#x27;w&#x27; at 0xb75250d0&gt;</div></td></tr><tr><td style="font-weight:bold;vertical-align:top;">wsgi_file_wrapper</td><td style="vertical-align:top;">:</td><td><div>&lt;class wsgiref.util.FileWrapper at 0x904ea1c&gt;</div></td></tr><tr><td style="font-weight:bold;vertical-align:top;">wsgi_input</td><td style="vertical-align:top;">:</td><td><div>&lt;socket._fileobject object at 0xae34e8ec&gt;</div></td></tr><tr><td style="font-weight:bold;vertical-align:top;">wsgi_multiprocess</td><td style="vertical-align:top;">:</td><td><div>False</div></td></tr><tr><td style="font-weight:bold;vertical-align:top;">wsgi_multithread</td><td style="vertical-align:top;">:</td><td><div>True</div></td></tr><tr><td style="font-weight:bold;vertical-align:top;">wsgi_run_once</td><td style="vertical-align:top;">:</td><td><div>False</div></td></tr><tr><td style="font-weight:bold;vertical-align:top;">wsgi_url_scheme</td><td style="vertical-align:top;">:</td><td><div>http</div></td></tr><tr><td style="font-weight:bold;vertical-align:top;">wsgi_version</td><td style="vertical-align:top;">:</td><td><div><table><tr><td><div>1</div></td></tr><tr><td><div>0</div></td></tr></table></div></td></tr></table></div></td></tr><tr><td style="font-weight:bold;vertical-align:top;">extension</td><td style="vertical-align:top;">:</td><td><div>html</div></td></tr><tr><td style="font-weight:bold;vertical-align:top;">folder</td><td style="vertical-align:top;">:</td><td><div>/home/wasuaje/Documentos/desarrollo/web2py6/applications/pysalon/</div></td></tr><tr><td style="font-weight:bold;vertical-align:top;">function</td><td style="vertical-align:top;">:</td><td><div>index</div></td></tr><tr><td style="font-weight:bold;vertical-align:top;">global_settings</td><td style="vertical-align:top;">:</td><td><div><table><tr><td style="font-weight:bold;vertical-align:top;">app_folders</td><td style="vertical-align:top;">:</td><td><div>set([&#x27;/home/wasuaje/Documentos/desarrollo/web2py6/applications/admin/&#x27;, &#x27;/home/wasuaje/Documentos/desarrollo/web2py6/applications/pysalon/&#x27;])</div></td></tr><tr><td style="font-weight:bold;vertical-align:top;">applications_parent</td><td style="vertical-align:top;">:</td><td><div>/home/wasuaje/Documentos/desarrollo/web2py6</div></td></tr><tr><td style="font-weight:bold;vertical-align:top;">cmd_args</td><td style="vertical-align:top;">:</td><td><div><table></table></div></td></tr><tr><td style="font-weight:bold;vertical-align:top;">cmd_options</td><td style="vertical-align:top;">:</td><td><div>&lt;Values at 0x908fc4c: {&#x27;verbose&#x27;: False, &#x27;ip&#x27;: &#x27;127.0.0.1&#x27;, &#x27;debuglevel&#x27;: 30, &#x27;with_scheduler&#x27;: False, &#x27;ips&#x27;: [&#x27;10.1.125.41&#x27;, &#x27;127.0.1.1&#x27;], &#x27;shutdown_timeout&#x27;: 5, &#x27;taskbar&#x27;: False, &#x27;with_coverage&#x27;: False, &#x27;port&#x27;: 8000, &#x27;maxthreads&#x27;: None, &#x27;softcron&#x27;: False, &#x27;server_name&#x27;: &#x27;wasuaje-desktop&#x27;, &#x27;bpython&#x27;: False, &#x27;nogui&#x27;: False, &#x27;pid_filename&#x27;: &#x27;httpserver.pid&#x27;, &#x27;extcron&#x27;: False, &#x27;runcron&#x27;: False, &#x27;run_system_tests&#x27;: False, &#x27;test&#x27;: None, &#x27;folder&#x27;: &#x27;/home/wasuaje/Documentos/desarrollo/web2py6&#x27;, &#x27;config&#x27;: &#x27;&#x27;, &#x27;minthreads&#x27;: None, &#x27;shell&#x27;: None, &#x27;run&#x27;: &#x27;&#x27;, &#x27;log_filename&#x27;: &#x27;httpserver.log&#x27;, &#x27;profiler_dir&#x27;: None, &#x27;args&#x27;: [&#x27;&#x27;], &#x27;socket_timeout&#x27;: 5, &#x27;ssl_ca_certificate&#x27;: None, &#x27;scheduler&#x27;: None, &#x27;interfaces&#x27;: None, &#x27;ssl_private_key&#x27;: &#x27;&#x27;, &#x27;scheduler_groups&#x27;: None, &#x27;password&#x27;: &#x27;w&#x27;, &#x27;request_queue_size&#x27;: 5, &#x27;ssl_certificate&#x27;: &#x27;&#x27;, &#x27;cronjob&#x27;: False, &#x27;numthreads&#x27;: None, &#x27;quiet&#x27;: False, &#x27;import_models&#x27;: False, &#x27;timeout&#x27;: 10, &#x27;plain&#x27;: False, &#x27;nobanner&#x27;: False}&gt;</div></td></tr><tr><td style="font-weight:bold;vertical-align:top;">db_sessions</td><td style="vertical-align:top;">:</td><td><div>set([])</div></td></tr><tr><td style="font-weight:bold;vertical-align:top;">debugging</td><td style="vertical-align:top;">:</td><td><div>False</div></td></tr><tr><td style="font-weight:bold;vertical-align:top;">gluon_parent</td><td style="vertical-align:top;">:</td><td><div>/home/wasuaje/Documentos/desarrollo/web2py6</div></td></tr><tr><td style="font-weight:bold;vertical-align:top;">is_jython</td><td style="vertical-align:top;">:</td><td><div>False</div></td></tr><tr><td style="font-weight:bold;vertical-align:top;">is_pypy</td><td style="vertical-align:top;">:</td><td><div>False</div></td></tr><tr><td style="font-weight:bold;vertical-align:top;">is_source</td><td style="vertical-align:top;">:</td><td><div>True</div></td></tr><tr><td style="font-weight:bold;vertical-align:top;">local_hosts</td><td style="vertical-align:top;">:</td><td><div><table><tr><td><div>wasuaje-desktop</div></td></tr><tr><td><div>::ffff:127.0.0.1</div></td></tr><tr><td><div>::1</div></td></tr><tr><td><div>10.1.125.41</div></td></tr><tr><td><div>127.0.1.1</div></td></tr><tr><td><div>127.0.0.1</div></td></tr></table></div></td></tr><tr><td style="font-weight:bold;vertical-align:top;">web2py_version</td><td style="vertical-align:top;">:</td><td><div>2.9.5-stable+timestamp.2014.03.16.02.35.39</div></td></tr></table></div></td></tr><tr><td style="font-weight:bold;vertical-align:top;">is_https</td><td style="vertical-align:top;">:</td><td><div>False</div></td></tr><tr><td style="font-weight:bold;vertical-align:top;">is_local</td><td style="vertical-align:top;">:</td><td><div>True</div></td></tr><tr><td style="font-weight:bold;vertical-align:top;">is_restful</td><td style="vertical-align:top;">:</td><td><div>False</div></td></tr><tr><td style="font-weight:bold;vertical-align:top;">now</td><td style="vertical-align:top;">:</td><td><div>datetime.datetime(2014, 6, 5, 17, 43, 28, 736449)</div></td></tr><tr><td style="font-weight:bold;vertical-align:top;">raw_args</td><td style="vertical-align:top;">:</td><td><div></div></td></tr><tr><td style="font-weight:bold;vertical-align:top;">raw_extension</td><td style="vertical-align:top;">:</td><td><div>None</div></td></tr><tr><td style="font-weight:bold;vertical-align:top;">url</td><td style="vertical-align:top;">:</td><td><div>/pysalon/pos/index</div></td></tr><tr><td style="font-weight:bold;vertical-align:top;">utcnow</td><td style="vertical-align:top;">:</td><td><div>datetime.datetime(2014, 6, 5, 22, 13, 28, 736544)</div></td></tr><tr><td style="font-weight:bold;vertical-align:top;">uuid</td><td style="vertical-align:top;">:</td><td><div>pysalon/127.0.0.1.2014-06-05.17-43-28.98f6d3db-7c05-48db-add2-d303712cfc04</div></td></tr><tr><td style="font-weight:bold;vertical-align:top;">wsgi</td><td style="vertical-align:top;">:</td><td><div>&lt;gluon.main.LazyWSGI object at 0xadd06a4c&gt;</div></td></tr></table></div>'
tRp70
sS'frames'
p71
(lp72
(dp73
S'file'
p74
S'/home/wasuaje/Documentos/desarrollo/web2py6/gluon/restricted.py'
p75
sS'dump'
p76
(dp77
S'code'
p78
S"'# -*- coding: utf-8 -*-\\n\\n#######################...id)        \\n        \\n        return rc2\\n\\n\\n\\n\\n\\n\\n\\n\\n\\n'"
p79
sS'layer'
p80
S"'/home/wasuaje/Documentos/desarrollo/web2py6/applications/pysalon/models/db.py'"
p81
sS'global compile2'
p82
S'<function compile2>'
p83
sS'ccode'
p84
S'undefined'
p85
ssS'lnum'
p86
I219
sS'lines'
p87
(dp88
I214
S"    environment['__name__'] = '__restricted__'"
p89
sI215
S'    try:'
p90
sI216
S'        if isinstance(code, types.CodeType):'
p91
sI217
S'            ccode = code'
p92
sI218
S'        else:'
p93
sI219
S'            ccode = compile2(code, layer)'
p94
sI220
S'        exec ccode in environment'
p95
sI221
S'    except HTTP:'
p96
sI222
S'        raise'
p97
sI223
S'    except RestrictedError:'
p98
ssS'call'
p99
S"(code='# -*- coding: utf-8 -*-\\n\\n#######################...id)        \\n        \\n        return rc2\\n\\n\\n\\n\\n\\n\\n\\n\\n\\n', environment={'A': <class 'gluon.html.A'>, 'ANY_OF': <class 'gluon.validators.ANY_OF'>, 'B': <class 'gluon.html.B'>, 'BEAUTIFY': <class 'gluon.html.BEAUTIFY'>, 'BODY': <class 'gluon.html.BODY'>, 'BR': <class 'gluon.html.BR'>, 'BUTTON': <class 'gluon.html.BUTTON'>, 'CAT': <class 'gluon.html.CAT'>, 'CENTER': <class 'gluon.html.CENTER'>, 'CLEANUP': <class 'gluon.validators.CLEANUP'>, ...}, layer='/home/wasuaje/Documentos/desarrollo/web2py6/applications/pysalon/models/db.py')"
p100
sS'func'
p101
S'restricted'
p102
sa(dp103
g74
S'/home/wasuaje/Documentos/desarrollo/web2py6/gluon/restricted.py'
p104
sg76
(dp105
S'builtincompile'
p106
S'<built-in function compile>'
p107
sS'code'
p108
S"'# -*- coding: utf-8 -*-\\n\\n#######################...id)        \\n        \\n        return rc2\\n\\n\\n\\n\\n\\n\\n\\n\\n\\n'"
p109
sS'code.rstrip'
p110
S'<built-in method rstrip of str object>'
p111
sS').replace'
p112
g85
sS'layer'
p113
S"'/home/wasuaje/Documentos/desarrollo/web2py6/applications/pysalon/models/db.py'"
p114
ssg86
I202
sg87
(dp115
I197
S''
sI198
S'def compile2(code, layer):'
p116
sI199
S'    """'
p117
sI200
S"    The +'\\n' is necessary else compile fails when code ends in a comment."
p118
sI201
S'    """'
p119
sI202
S"    return compile(code.rstrip().replace('\\r\\n', '\\n') + '\\n', layer, 'exec')"
p120
sI203
S''
sI204
S''
sI205
S"def restricted(code, environment=None, layer='Unknown'):"
p121
sI206
S'    """'
p122
ssg99
S"(code='# -*- coding: utf-8 -*-\\n\\n#######################...id)        \\n        \\n        return rc2\\n\\n\\n\\n\\n\\n\\n\\n\\n\\n', layer='/home/wasuaje/Documentos/desarrollo/web2py6/applications/pysalon/models/db.py')"
p123
sg101
S'compile2'
p124
sasS'pyver'
p125
S'Python 2.7.5+: /usr/bin/python (prefix: /usr)'
p126
sS'session'
p127
g69
(S's\xe8\x08\x00\x00<div><table><tr><td style="font-weight:bold;vertical-align:top;">auth</td><td style="vertical-align:top;">:</td><td><div><table><tr><td style="font-weight:bold;vertical-align:top;">expiration</td><td style="vertical-align:top;">:</td><td><div>3600</div></td></tr><tr><td style="font-weight:bold;vertical-align:top;">hmac_key</td><td style="vertical-align:top;">:</td><td><div>1a4bccf7-2f63-47d4-aeb0-9280c9183fc6</div></td></tr><tr><td style="font-weight:bold;vertical-align:top;">last_visit</td><td style="vertical-align:top;">:</td><td><div>datetime.datetime(2014, 6, 5, 17, 40, 10, 441653)</div></td></tr><tr><td style="font-weight:bold;vertical-align:top;">remember</td><td style="vertical-align:top;">:</td><td><div>False</div></td></tr><tr><td style="font-weight:bold;vertical-align:top;">user</td><td style="vertical-align:top;">:</td><td><div><table><tr><td style="font-weight:bold;vertical-align:top;">email</td><td style="vertical-align:top;">:</td><td><div>wasuaje@gmail.com</div></td></tr><tr><td style="font-weight:bold;vertical-align:top;">first_name</td><td style="vertical-align:top;">:</td><td><div>Wuelfhis</div></td></tr><tr><td style="font-weight:bold;vertical-align:top;">id</td><td style="vertical-align:top;">:</td><td><div>1L</div></td></tr><tr><td style="font-weight:bold;vertical-align:top;">last_name</td><td style="vertical-align:top;">:</td><td><div>Asuaje</div></td></tr><tr><td style="font-weight:bold;vertical-align:top;">registration_id</td><td style="vertical-align:top;">:</td><td><div></div></td></tr><tr><td style="font-weight:bold;vertical-align:top;">registration_key</td><td style="vertical-align:top;">:</td><td><div></div></td></tr><tr><td style="font-weight:bold;vertical-align:top;">reset_password_key</td><td style="vertical-align:top;">:</td><td><div></div></td></tr></table></div></td></tr><tr><td style="font-weight:bold;vertical-align:top;">user_groups</td><td style="vertical-align:top;">:</td><td><div><table><tr><td style="font-weight:bold;vertical-align:top;">1</td><td style="vertical-align:top;">:</td><td><div>user_1</div></td></tr></table></div></td></tr></table></div></td></tr><tr><td style="font-weight:bold;vertical-align:top;">flash</td><td style="vertical-align:top;">:</td><td><div>None</div></td></tr></table></div>'
tRp128
sS'etype'
p129
S"<type 'exceptions.SyntaxError'>"
p130
sS'date'
p131
S'Thu Jun  5 17:43:28 2014'
p132
sS'response'
p133
g69
(S's\xc9\x16\x00\x00<div><table><tr><td style="font-weight:bold;vertical-align:top;">body</td><td style="vertical-align:top;">:</td><td><div>&lt;cStringIO.StringO object at 0xae35bea0&gt;</div></td></tr><tr><td style="font-weight:bold;vertical-align:top;">cookies</td><td style="vertical-align:top;">:</td><td><div><table><tr><td style="font-weight:bold;vertical-align:top;">session_id_pysalon</td><td style="vertical-align:top;">:</td><td><div>127.0.0.1-4e9d6685-e596-4ce0-ab4c-f3a03db1cdd6<table><tr><td style="font-weight:bold;vertical-align:top;">comment</td><td style="vertical-align:top;">:</td><td><div></div></td></tr><tr><td style="font-weight:bold;vertical-align:top;">domain</td><td style="vertical-align:top;">:</td><td><div></div></td></tr><tr><td style="font-weight:bold;vertical-align:top;">expires</td><td style="vertical-align:top;">:</td><td><div></div></td></tr><tr><td style="font-weight:bold;vertical-align:top;">httponly</td><td style="vertical-align:top;">:</td><td><div></div></td></tr><tr><td style="font-weight:bold;vertical-align:top;">max-age</td><td style="vertical-align:top;">:</td><td><div></div></td></tr><tr><td style="font-weight:bold;vertical-align:top;">path</td><td style="vertical-align:top;">:</td><td><div>/</div></td></tr><tr><td style="font-weight:bold;vertical-align:top;">secure</td><td style="vertical-align:top;">:</td><td><div></div></td></tr><tr><td style="font-weight:bold;vertical-align:top;">version</td><td style="vertical-align:top;">:</td><td><div></div></td></tr></table></div></td></tr></table></div></td></tr><tr><td style="font-weight:bold;vertical-align:top;">delimiters</td><td style="vertical-align:top;">:</td><td><div><table><tr><td><div>{{</div></td></tr><tr><td><div>}}</div></td></tr></table></div></td></tr><tr><td style="font-weight:bold;vertical-align:top;">files</td><td style="vertical-align:top;">:</td><td><div><table></table></div></td></tr><tr><td style="font-weight:bold;vertical-align:top;">flash</td><td style="vertical-align:top;">:</td><td><div></div></td></tr><tr><td style="font-weight:bold;vertical-align:top;">generic_patterns</td><td style="vertical-align:top;">:</td><td><div><table></table></div></td></tr><tr><td style="font-weight:bold;vertical-align:top;">headers</td><td style="vertical-align:top;">:</td><td><div><table><tr><td style="font-weight:bold;vertical-align:top;">X-Powered-By</td><td style="vertical-align:top;">:</td><td><div>web2py</div></td></tr></table></div></td></tr><tr><td style="font-weight:bold;vertical-align:top;">menu</td><td style="vertical-align:top;">:</td><td><div><table></table></div></td></tr><tr><td style="font-weight:bold;vertical-align:top;">meta</td><td style="vertical-align:top;">:</td><td><div><table></table></div></td></tr><tr><td style="font-weight:bold;vertical-align:top;">models_to_run</td><td style="vertical-align:top;">:</td><td><div><table><tr><td><div>^\\w+\\.py$</div></td></tr><tr><td><div>^pos/\\w+\\.py$</div></td></tr><tr><td><div>^pos/index/\\w+\\.py$</div></td></tr></table></div></td></tr><tr><td style="font-weight:bold;vertical-align:top;">postprocessing</td><td style="vertical-align:top;">:</td><td><div><table></table></div></td></tr><tr><td style="font-weight:bold;vertical-align:top;">session_client</td><td style="vertical-align:top;">:</td><td><div>127.0.0.1</div></td></tr><tr><td style="font-weight:bold;vertical-align:top;">session_cookie_compression_level</td><td style="vertical-align:top;">:</td><td><div>None</div></td></tr><tr><td style="font-weight:bold;vertical-align:top;">session_cookie_expires</td><td style="vertical-align:top;">:</td><td><div>None</div></td></tr><tr><td style="font-weight:bold;vertical-align:top;">session_cookie_key</td><td style="vertical-align:top;">:</td><td><div>None</div></td></tr><tr><td style="font-weight:bold;vertical-align:top;">session_data_name</td><td style="vertical-align:top;">:</td><td><div>session_data_pysalon</div></td></tr><tr><td style="font-weight:bold;vertical-align:top;">session_file</td><td style="vertical-align:top;">:</td><td><div>&lt;open file &#x27;/home/wasuaje/Documentos/desarrollo/web2py6/applications/pysalon/sessions/127.0.0.1-4e9d6685-e596-4ce0-ab4c-f3a03db1cdd6&#x27;, mode &#x27;rb+&#x27; at 0xb47a3498&gt;</div></td></tr><tr><td style="font-weight:bold;vertical-align:top;">session_filename</td><td style="vertical-align:top;">:</td><td><div>/home/wasuaje/Documentos/desarrollo/web2py6/applications/pysalon/sessions/127.0.0.1-4e9d6685-e596-4ce0-ab4c-f3a03db1cdd6</div></td></tr><tr><td style="font-weight:bold;vertical-align:top;">session_hash</td><td style="vertical-align:top;">:</td><td><div>19865baaee2cf239607bcbe280446c9c</div></td></tr><tr><td style="font-weight:bold;vertical-align:top;">session_id</td><td style="vertical-align:top;">:</td><td><div>127.0.0.1-4e9d6685-e596-4ce0-ab4c-f3a03db1cdd6</div></td></tr><tr><td style="font-weight:bold;vertical-align:top;">session_id_name</td><td style="vertical-align:top;">:</td><td><div>session_id_pysalon</div></td></tr><tr><td style="font-weight:bold;vertical-align:top;">session_locked</td><td style="vertical-align:top;">:</td><td><div>True</div></td></tr><tr><td style="font-weight:bold;vertical-align:top;">session_masterapp</td><td style="vertical-align:top;">:</td><td><div>pysalon</div></td></tr><tr><td style="font-weight:bold;vertical-align:top;">session_new</td><td style="vertical-align:top;">:</td><td><div>False</div></td></tr><tr><td style="font-weight:bold;vertical-align:top;">session_storage_type</td><td style="vertical-align:top;">:</td><td><div>file</div></td></tr><tr><td style="font-weight:bold;vertical-align:top;">status</td><td style="vertical-align:top;">:</td><td><div>200</div></td></tr><tr><td style="font-weight:bold;vertical-align:top;">view</td><td style="vertical-align:top;">:</td><td><div>pos/index.html</div></td></tr></table></div>'
tRp134
sS'locals'
p135
(dp136
g4
S"'/home/wasuaje/Documentos/desarrollo/web2py6/applications/pysalon/models/db.py'"
p137
sg6
S"'# -*- coding: utf-8 -*-\\n\\n#######################...id)        \\n        \\n        return rc2\\n\\n\\n\\n\\n\\n\\n\\n\\n\\n'"
p138
sssS'traceback'
p139
S'Traceback (most recent call last):\n  File "/home/wasuaje/Documentos/desarrollo/web2py6/gluon/restricted.py", line 219, in restricted\n    ccode = compile2(code, layer)\n  File "/home/wasuaje/Documentos/desarrollo/web2py6/gluon/restricted.py", line 202, in compile2\n    return compile(code.rstrip().replace(\'\\r\\n\', \'\\n\') + \'\\n\', layer, \'exec\')\n  File "/home/wasuaje/Documentos/desarrollo/web2py6/applications/pysalon/models/db.py", line 306\n    recargo=recargo,\n          ^\nSyntaxError: invalid syntax\n'
p140
s.